target datalayout = "e-m:e-p270:32:32-p271:32:32-p272:64:64-i64:64-i128:128-f80:128-n8:16:32:64-S128"
target triple = "x86_64-pc-linux-gnu"

%"class.llvm::SmallVectorBase" = type { ptr, i32, i32 }
%"class.llvm::SmallVectorImpl.53" = type { %"class.llvm::SmallVectorTemplateBase.54" }
%"class.llvm::SmallVectorTemplateBase.54" = type { %"class.llvm::SmallVectorTemplateCommon.55" }
%"class.llvm::SmallVectorTemplateCommon.55" = type { %"class.llvm::SmallVectorBase" }
%"struct.llvm::MCSchedModel" = type { i32, i32, i32, i32, i32, i32, i8, i8, i8, i32, ptr, ptr, i32, i32, ptr, ptr }
%"class.llvm::ResourceManager" = type { ptr, ptr, ptr, ptr, ptr, i8, %"class.llvm::SmallVector.556", %"class.llvm::SmallVector.561", %"class.llvm::SmallVector.566", %"class.llvm::SmallVector.571", i32, i32 }
%"class.llvm::SmallVector.556" = type { %"class.llvm::SmallVectorImpl.557", %"struct.llvm::SmallVectorStorage.560" }
%"class.llvm::SmallVectorImpl.557" = type { %"class.llvm::SmallVectorTemplateBase.558" }
%"class.llvm::SmallVectorTemplateBase.558" = type { %"class.llvm::SmallVectorTemplateCommon.559" }
%"class.llvm::SmallVectorTemplateCommon.559" = type { %"class.llvm::SmallVectorBase" }
%"struct.llvm::SmallVectorStorage.560" = type { [48 x i8] }
%"class.llvm::SmallVector.561" = type { %"class.llvm::SmallVectorImpl.562", %"struct.llvm::SmallVectorStorage.565" }
%"class.llvm::SmallVectorImpl.562" = type { %"class.llvm::SmallVectorTemplateBase.563" }
%"class.llvm::SmallVectorTemplateBase.563" = type { %"class.llvm::SmallVectorTemplateCommon.564" }
%"class.llvm::SmallVectorTemplateCommon.564" = type { %"class.llvm::SmallVectorBase" }
%"struct.llvm::SmallVectorStorage.565" = type { [144 x i8] }
%"class.llvm::SmallVector.566" = type { %"class.llvm::SmallVectorImpl.567", %"struct.llvm::SmallVectorStorage.570" }
%"class.llvm::SmallVectorImpl.567" = type { %"class.llvm::SmallVectorTemplateBase.568" }
%"class.llvm::SmallVectorTemplateBase.568" = type { %"class.llvm::SmallVectorTemplateCommon.569" }
%"class.llvm::SmallVectorTemplateCommon.569" = type { %"class.llvm::SmallVectorBase" }
%"struct.llvm::SmallVectorStorage.570" = type { [48 x i8] }
%"class.llvm::SmallVector.571" = type { %"class.llvm::SmallVectorImpl.53", %"struct.llvm::SmallVectorStorage.572" }
%"struct.llvm::SmallVectorStorage.572" = type { [128 x i8] }
%"struct.llvm::MCProcResourceDesc" = type { ptr, i32, i32, i32, ptr }

; Function Attrs: mustprogress nounwind uwtable
define linkonce_odr hidden noundef ptr @_ZNK4llvm25SmallVectorTemplateCommonIivE5beginEv(ptr noundef nonnull align 8 dereferenceable(16) %0) #1 comdat align 2 {
  %2 = alloca ptr, align 8
  store ptr %0, ptr %2, align 8
  %3 = load ptr, ptr %2, align 8
  %4 = getelementptr inbounds nuw %"class.llvm::SmallVectorBase", ptr %3, i32 0, i32 0
  %5 = load ptr, ptr %4, align 8
  ret ptr %5
}

; Function Attrs: mustprogress nounwind uwtable
define linkonce_odr hidden noundef ptr @_ZNK4llvm25SmallVectorTemplateCommonImvE5beginEv(ptr noundef nonnull align 8 dereferenceable(16) %0) #1 comdat align 2 {
  %2 = alloca ptr, align 8
  store ptr %0, ptr %2, align 8
  %3 = load ptr, ptr %2, align 8
  %4 = getelementptr inbounds nuw %"class.llvm::SmallVectorBase", ptr %3, i32 0, i32 0
  %5 = load ptr, ptr %4, align 8
  ret ptr %5
}

; Function Attrs: mustprogress nounwind uwtable
define linkonce_odr hidden noundef ptr @_ZNK4llvm25SmallVectorTemplateCommonINS_11SmallVectorImLj16EEEvE5beginEv(ptr noundef nonnull align 8 dereferenceable(16) %0) #1 comdat align 2 {
  %2 = alloca ptr, align 8
  store ptr %0, ptr %2, align 8
  %3 = load ptr, ptr %2, align 8
  %4 = getelementptr inbounds nuw %"class.llvm::SmallVectorBase", ptr %3, i32 0, i32 0
  %5 = load ptr, ptr %4, align 8
  ret ptr %5
}

; Function Attrs: mustprogress nounwind uwtable
define linkonce_odr hidden noundef nonnull align 4 dereferenceable(4) ptr @_ZNK4llvm25SmallVectorTemplateCommonIivEixEm(ptr noundef nonnull align 8 dereferenceable(16) %0, i64 noundef %1) #1 comdat align 2 {
  %3 = alloca ptr, align 8
  %4 = alloca i64, align 8
  store ptr %0, ptr %3, align 8
  store i64 %1, ptr %4, align 8
  %5 = load ptr, ptr %3, align 8
  %6 = call noundef ptr @_ZNK4llvm25SmallVectorTemplateCommonIivE5beginEv(ptr noundef nonnull align 8 dereferenceable(16) %5)
  %7 = load i64, ptr %4, align 8
  %8 = getelementptr inbounds i32, ptr %6, i64 %7
  ret ptr %8
}

; Function Attrs: mustprogress nounwind uwtable
define linkonce_odr hidden noundef nonnull align 8 dereferenceable(8) ptr @_ZNK4llvm25SmallVectorTemplateCommonImvEixEm(ptr noundef nonnull align 8 dereferenceable(16) %0, i64 noundef %1) #1 comdat align 2 {
  %3 = alloca ptr, align 8
  %4 = alloca i64, align 8
  store ptr %0, ptr %3, align 8
  store i64 %1, ptr %4, align 8
  %5 = load ptr, ptr %3, align 8
  %6 = call noundef ptr @_ZNK4llvm25SmallVectorTemplateCommonImvE5beginEv(ptr noundef nonnull align 8 dereferenceable(16) %5)
  %7 = load i64, ptr %4, align 8
  %8 = getelementptr inbounds i64, ptr %6, i64 %7
  ret ptr %8
}

; Function Attrs: mustprogress nounwind uwtable
define linkonce_odr hidden noundef nonnull align 8 dereferenceable(144) ptr @_ZNK4llvm25SmallVectorTemplateCommonINS_11SmallVectorImLj16EEEvEixEm(ptr noundef nonnull align 8 dereferenceable(16) %0, i64 noundef %1) #1 comdat align 2 {
  %3 = alloca ptr, align 8
  %4 = alloca i64, align 8
  store ptr %0, ptr %3, align 8
  store i64 %1, ptr %4, align 8
  %5 = load ptr, ptr %3, align 8
  %6 = call noundef ptr @_ZNK4llvm25SmallVectorTemplateCommonINS_11SmallVectorImLj16EEEvE5beginEv(ptr noundef nonnull align 8 dereferenceable(16) %5)
  %7 = load i64, ptr %4, align 8
  %8 = getelementptr inbounds %"class.llvm::SmallVector.571", ptr %6, i64 %7
  ret ptr %8
}

; Function Attrs: mustprogress nounwind uwtable
define linkonce_odr hidden noundef ptr @_ZNK4llvm12MCSchedModel15getProcResourceEj(ptr noundef nonnull align 8 dereferenceable(72) %0, i32 noundef %1) #1 comdat align 2 {
  %3 = alloca ptr, align 8
  %4 = alloca i32, align 4
  store ptr %0, ptr %3, align 8
  store i32 %1, ptr %4, align 4
  %5 = load ptr, ptr %3, align 8
  %6 = getelementptr inbounds nuw %"struct.llvm::MCSchedModel", ptr %5, i32 0, i32 10
  %7 = load ptr, ptr %6, align 8
  %8 = load i32, ptr %4, align 4
  %9 = zext i32 %8 to i64
  %10 = getelementptr inbounds %"struct.llvm::MCProcResourceDesc", ptr %7, i64 %9
  ret ptr %10
}

; Function Attrs: mustprogress nounwind uwtable
define linkonce_odr hidden noundef i32 @_ZNK4llvm12MCSchedModel23getNumProcResourceKindsEv(ptr noundef nonnull align 8 dereferenceable(72) %0) #1 comdat align 2 {
  %2 = alloca ptr, align 8
  store ptr %0, ptr %2, align 8
  %3 = load ptr, ptr %2, align 8
  %4 = getelementptr inbounds nuw %"struct.llvm::MCSchedModel", ptr %3, i32 0, i32 12
  %5 = load i32, ptr %4, align 8
  ret i32 %5
}

; Function Attrs: mustprogress nounwind uwtable
define dso_local noundef zeroext i1 @_ZNK4llvm15ResourceManager12isOverbookedEv(ptr noundef nonnull align 8 dereferenceable(488) %0) #1 align 2 {
  %2 = alloca i1, align 1
  %3 = alloca ptr, align 8
  %4 = alloca i32, align 4
  %5 = alloca i32, align 4
  %6 = alloca i32, align 4
  %7 = alloca ptr, align 8
  store ptr %0, ptr %3, align 8
  %8 = load ptr, ptr %3, align 8
  store i32 0, ptr %4, align 4
  br label %9

9:                                                ; preds = %56, %1
  %10 = load i32, ptr %4, align 4
  %11 = getelementptr inbounds nuw %"class.llvm::ResourceManager", ptr %8, i32 0, i32 10
  %12 = load i32, ptr %11, align 8
  %13 = icmp slt i32 %10, %12
  br i1 %13, label %14, label %59

14:                                               ; preds = %9
  store i32 1, ptr %5, align 4
  %15 = getelementptr inbounds nuw %"class.llvm::ResourceManager", ptr %8, i32 0, i32 1
  %16 = load ptr, ptr %15, align 8
  %17 = call noundef i32 @_ZNK4llvm12MCSchedModel23getNumProcResourceKindsEv(ptr noundef nonnull align 8 dereferenceable(72) %16)
  store i32 %17, ptr %6, align 4
  br label %18

18:                                               ; preds = %42, %14
  %19 = load i32, ptr %5, align 4
  %20 = load i32, ptr %6, align 4
  %21 = icmp ult i32 %19, %20
  br i1 %21, label %22, label %45

22:                                               ; preds = %18
  %23 = getelementptr inbounds nuw %"class.llvm::ResourceManager", ptr %8, i32 0, i32 1
  %24 = load ptr, ptr %23, align 8
  %25 = load i32, ptr %5, align 4
  %26 = call noundef ptr @_ZNK4llvm12MCSchedModel15getProcResourceEj(ptr noundef nonnull align 8 dereferenceable(72) %24, i32 noundef %25)
  store ptr %26, ptr %7, align 8
  %27 = getelementptr inbounds nuw %"class.llvm::ResourceManager", ptr %8, i32 0, i32 7
  %28 = load i32, ptr %4, align 4
  %29 = sext i32 %28 to i64
  %30 = call noundef nonnull align 8 dereferenceable(144) ptr @_ZNK4llvm25SmallVectorTemplateCommonINS_11SmallVectorImLj16EEEvEixEm(ptr noundef nonnull align 8 dereferenceable(16) %27, i64 noundef %29)
  %31 = load i32, ptr %5, align 4
  %32 = zext i32 %31 to i64
  %33 = call noundef nonnull align 8 dereferenceable(8) ptr @_ZNK4llvm25SmallVectorTemplateCommonImvEixEm(ptr noundef nonnull align 8 dereferenceable(16) %30, i64 noundef %32)
  %34 = load i64, ptr %33, align 8
  %35 = load ptr, ptr %7, align 8
  %36 = getelementptr inbounds nuw %"struct.llvm::MCProcResourceDesc", ptr %35, i32 0, i32 1
  %37 = load i32, ptr %36, align 8
  %38 = zext i32 %37 to i64
  %39 = icmp ugt i64 %34, %38
  br i1 %39, label %40, label %41

40:                                               ; preds = %22
  store i1 true, ptr %2, align 1
  br label %60

41:                                               ; preds = %22
  br label %42

42:                                               ; preds = %41
  %43 = load i32, ptr %5, align 4
  %44 = add i32 %43, 1
  store i32 %44, ptr %5, align 4
  br label %18, !llvm.loop !56

45:                                               ; preds = %18
  %46 = getelementptr inbounds nuw %"class.llvm::ResourceManager", ptr %8, i32 0, i32 8
  %47 = load i32, ptr %4, align 4
  %48 = sext i32 %47 to i64
  %49 = call noundef nonnull align 4 dereferenceable(4) ptr @_ZNK4llvm25SmallVectorTemplateCommonIivEixEm(ptr noundef nonnull align 8 dereferenceable(16) %46, i64 noundef %48)
  %50 = load i32, ptr %49, align 4
  %51 = getelementptr inbounds nuw %"class.llvm::ResourceManager", ptr %8, i32 0, i32 11
  %52 = load i32, ptr %51, align 4
  %53 = icmp sgt i32 %50, %52
  br i1 %53, label %54, label %55

54:                                               ; preds = %45
  store i1 true, ptr %2, align 1
  br label %60

55:                                               ; preds = %45
  br label %56

56:                                               ; preds = %55
  %57 = load i32, ptr %4, align 4
  %58 = add nsw i32 %57, 1
  store i32 %58, ptr %4, align 4
  br label %9, !llvm.loop !57

59:                                               ; preds = %9
  store i1 false, ptr %2, align 1
  br label %60

60:                                               ; preds = %59, %54, %40
  %61 = load i1, ptr %2, align 1
  ret i1 %61
}