; Function Attrs: mustprogress nofree norecurse nosync nounwind willreturn memory(read, inaccessiblemem: none) uwtable
define dso_local noundef zeroext i1 @_ZNK4llvm15ResourceManager12isOverbookedEv(ptr nocapture noundef nonnull readonly align 8 dereferenceable(488) %0) local_unnamed_addr #4 align 2 {
  %2 = getelementptr inbounds nuw i8, ptr %0, i64 480
  %3 = load i32, ptr %2, align 8
  %4 = icmp sgt i32 %3, 0
  br i1 %4, label %.lr.ph18, label %.loopexit

.lr.ph18:                                         ; preds = %1
  %5 = getelementptr inbounds nuw i8, ptr %0, i64 8
  %6 = load ptr, ptr %5, align 8
  %7 = getelementptr inbounds nuw i8, ptr %6, i64 48
  %8 = load i32, ptr %7, align 8
  %9 = icmp ugt i32 %8, 1
  %10 = getelementptr inbounds nuw i8, ptr %0, i64 112
  %11 = load ptr, ptr %10, align 8
  %12 = getelementptr inbounds nuw i8, ptr %0, i64 272
  %13 = load ptr, ptr %12, align 8
  %14 = getelementptr inbounds nuw i8, ptr %0, i64 484
  %15 = load i32, ptr %14, align 4
  br i1 %9, label %.lr.ph18.split.us, label %.lr.ph18.split

.lr.ph18.split.us:                                ; preds = %.lr.ph18
  %16 = getelementptr inbounds nuw i8, ptr %6, i64 32
  %17 = load ptr, ptr %16, align 8
  %wide.trip.count36 = zext nneg i32 %3 to i64
  %wide.trip.count31 = zext i32 %8 to i64
  br label %.lr.ph.us

.lr.ph.us:                                        ; preds = %._crit_edge.us, %.lr.ph18.split.us
  %indvars.iv33 = phi i64 [ 0, %.lr.ph18.split.us ], [ %indvars.iv.next34, %._crit_edge.us ]
  %18 = getelementptr inbounds %"class.llvm::SmallVector.571", ptr %11, i64 %indvars.iv33
  %19 = load ptr, ptr %18, align 8
  br label %21

20:                                               ; preds = %21
  %indvars.iv.next29 = add nuw nsw i64 %indvars.iv28, 1
  %exitcond32.not = icmp eq i64 %indvars.iv.next29, %wide.trip.count31
  br i1 %exitcond32.not, label %._crit_edge.us, label %21, !llvm.loop !423

21:                                               ; preds = %.lr.ph.us, %20
  %indvars.iv28 = phi i64 [ 1, %.lr.ph.us ], [ %indvars.iv.next29, %20 ]
  %22 = getelementptr inbounds i64, ptr %19, i64 %indvars.iv28
  %23 = load i64, ptr %22, align 8
  %24 = getelementptr inbounds %"struct.llvm::MCProcResourceDesc", ptr %17, i64 %indvars.iv28, i32 1
  %25 = load i32, ptr %24, align 8
  %26 = zext i32 %25 to i64
  %27 = icmp ugt i64 %23, %26
  br i1 %27, label %.loopexit, label %20

._crit_edge.us:                                   ; preds = %20
  %28 = getelementptr inbounds i32, ptr %13, i64 %indvars.iv33
  %29 = load i32, ptr %28, align 4
  %30 = icmp sgt i32 %29, %15
  %indvars.iv.next34 = add nuw nsw i64 %indvars.iv33, 1
  %exitcond37.not = icmp eq i64 %indvars.iv.next34, %wide.trip.count36
  %or.cond = select i1 %30, i1 true, i1 %exitcond37.not
  br i1 %or.cond, label %.loopexit, label %.lr.ph.us, !llvm.loop !424

.lr.ph18.split:                                   ; preds = %.lr.ph18
  %31 = load i32, ptr %13, align 4
  %32 = icmp sgt i32 %31, %15
  br i1 %32, label %.loopexit, label %.lr.ph.preheader

.lr.ph.preheader:                                 ; preds = %.lr.ph18.split
  %wide.trip.count = zext nneg i32 %3 to i64
  br label %.lr.ph

.lr.ph:                                           ; preds = %.lr.ph.preheader, %33
  %indvars.iv = phi i64 [ 1, %.lr.ph.preheader ], [ %indvars.iv.next, %33 ]
  %exitcond.not.not.not = icmp ne i64 %indvars.iv, %wide.trip.count
  br i1 %exitcond.not.not.not, label %33, label %.loopexit, !llvm.loop !424

33:                                               ; preds = %.lr.ph
  %34 = getelementptr inbounds i32, ptr %13, i64 %indvars.iv
  %35 = load i32, ptr %34, align 4
  %36 = icmp sgt i32 %35, %15
  %indvars.iv.next = add nuw nsw i64 %indvars.iv, 1
  br i1 %36, label %.loopexit, label %.lr.ph, !llvm.loop !424

.loopexit:                                        ; preds = %33, %.lr.ph, %._crit_edge.us, %21, %1, %.lr.ph18.split
  %37 = phi i1 [ false, %1 ], [ true, %.lr.ph18.split ], [ true, %21 ], [ %30, %._crit_edge.us ], [ %exitcond.not.not.not, %.lr.ph ], [ %exitcond.not.not.not, %33 ]
  ret i1 %37
}